target datalayout = "e-m:e-p270:32:32-p271:32:32-p272:64:64-i64:64-i128:128-f80:128-n8:16:32:64-S128"
target triple = "x86_64-pc-linux-gnu"

%struct.JsonManifestParseState = type { ptr, i32, i32, ptr, ptr, ptr, ptr, i32, ptr, i32, ptr, ptr, ptr, i8, ptr, ptr, ptr }
%struct.JsonManifestParseIncrementalState = type { %struct.JsonLexContext, %struct.JsonSemAction, ptr }
%struct.JsonLexContext = type { ptr, i64, i32, ptr, ptr, ptr, i8, i32, i32, i32, i32, ptr, ptr, ptr, i8, ptr, ptr }
%struct.JsonSemAction = type { ptr, ptr, ptr, ptr, ptr, ptr, ptr, ptr, ptr, ptr }
%struct.JsonManifestParseContext = type { ptr, ptr, ptr, ptr, ptr, ptr }

@.str.2 = private unnamed_addr constant [28 x i8] c"manifest ended unexpectedly\00", align 1
@.str.3 = private unnamed_addr constant [38 x i8] c"could not update checksum of manifest\00", align 1
@.str.52 = private unnamed_addr constant [36 x i8] c"could not parse backup manifest: %s\00", align 1

; Function Attrs: nounwind uwtable
define internal void @json_manifest_parse_failure(ptr noundef %0, ptr noundef %1) #0 {
  %3 = alloca ptr, align 8
  %4 = alloca ptr, align 8
  store ptr %0, ptr %3, align 8
  store ptr %1, ptr %4, align 8
  %5 = load ptr, ptr %3, align 8
  %6 = getelementptr inbounds nuw %struct.JsonManifestParseContext, ptr %5, i32 0, i32 5
  %7 = load ptr, ptr %6, align 8
  %8 = load ptr, ptr %3, align 8
  %9 = load ptr, ptr %4, align 8
  call void (ptr, ptr, ...) %7(ptr noundef %8, ptr noundef @.str.52, ptr noundef %9) #6
  unreachable
}

; Function Attrs: nounwind uwtable
define dso_local void @json_parse_manifest_incremental_chunk(ptr noundef %0, ptr noundef %1, i64 noundef %2, i1 noundef zeroext %3) #0 {
  %5 = alloca ptr, align 8
  %6 = alloca ptr, align 8
  %7 = alloca i64, align 8
  %8 = alloca i8, align 1
  %9 = alloca i32, align 4
  %10 = alloca i32, align 4
  %11 = alloca ptr, align 8
  %12 = alloca ptr, align 8
  store ptr %0, ptr %5, align 8
  store ptr %1, ptr %6, align 8
  store i64 %2, ptr %7, align 8
  %13 = zext i1 %3 to i8
  store i8 %13, ptr %8, align 1
  call void @llvm.lifetime.start.p0(i64 4, ptr %9) #5
  call void @llvm.lifetime.start.p0(i64 4, ptr %10) #5
  call void @llvm.lifetime.start.p0(i64 8, ptr %11) #5
  %14 = load ptr, ptr %5, align 8
  %15 = getelementptr inbounds nuw %struct.JsonManifestParseIncrementalState, ptr %14, i32 0, i32 1
  %16 = getelementptr inbounds nuw %struct.JsonSemAction, ptr %15, i32 0, i32 0
  %17 = load ptr, ptr %16, align 8
  store ptr %17, ptr %11, align 8
  call void @llvm.lifetime.start.p0(i64 8, ptr %12) #5
  %18 = load ptr, ptr %11, align 8
  %19 = getelementptr inbounds nuw %struct.JsonManifestParseState, ptr %18, i32 0, i32 0
  %20 = load ptr, ptr %19, align 8
  store ptr %20, ptr %12, align 8
  %21 = load ptr, ptr %5, align 8
  %22 = getelementptr inbounds nuw %struct.JsonManifestParseIncrementalState, ptr %21, i32 0, i32 0
  %23 = load ptr, ptr %5, align 8
  %24 = getelementptr inbounds nuw %struct.JsonManifestParseIncrementalState, ptr %23, i32 0, i32 1
  %25 = load ptr, ptr %6, align 8
  %26 = load i64, ptr %7, align 8
  %27 = load i8, ptr %8, align 1, !range !4, !noundef !5
  %28 = trunc i8 %27 to i1
  %29 = call i32 @pg_parse_json_incremental(ptr noundef %22, ptr noundef %24, ptr noundef %25, i64 noundef %26, i1 noundef zeroext %28)
  store i32 %29, ptr %9, align 4
  %30 = load i8, ptr %8, align 1, !range !4, !noundef !5
  %31 = trunc i8 %30 to i1
  %32 = select i1 %31, i32 0, i32 1
  store i32 %32, ptr %10, align 4
  %33 = load i32, ptr %9, align 4
  %34 = load i32, ptr %10, align 4
  %35 = icmp ne i32 %33, %34
  br i1 %35, label %36, label %42

36:                                               ; preds = %4
  %37 = load ptr, ptr %12, align 8
  %38 = load i32, ptr %9, align 4
  %39 = load ptr, ptr %5, align 8
  %40 = getelementptr inbounds nuw %struct.JsonManifestParseIncrementalState, ptr %39, i32 0, i32 0
  %41 = call ptr @json_errdetail(i32 noundef %38, ptr noundef %40)
  call void @json_manifest_parse_failure(ptr noundef %37, ptr noundef %41)
  br label %42

42:                                               ; preds = %36, %4
  %43 = load i8, ptr %8, align 1, !range !4, !noundef !5
  %44 = trunc i8 %43 to i1
  br i1 %44, label %45, label %52

45:                                               ; preds = %42
  %46 = load ptr, ptr %11, align 8
  %47 = getelementptr inbounds nuw %struct.JsonManifestParseState, ptr %46, i32 0, i32 1
  %48 = load i32, ptr %47, align 8
  %49 = icmp ne i32 %48, 14
  br i1 %49, label %50, label %52

50:                                               ; preds = %45
  %51 = load ptr, ptr %12, align 8
  call void @json_manifest_parse_failure(ptr noundef %51, ptr noundef @.str.2)
  br label %52

52:                                               ; preds = %50, %45, %42
  %53 = load i8, ptr %8, align 1, !range !4, !noundef !5
  %54 = trunc i8 %53 to i1
  br i1 %54, label %69, label %55

55:                                               ; preds = %52
  %56 = load ptr, ptr %5, align 8
  %57 = getelementptr inbounds nuw %struct.JsonManifestParseIncrementalState, ptr %56, i32 0, i32 2
  %58 = load ptr, ptr %57, align 8
  %59 = load ptr, ptr %6, align 8
  %60 = load i64, ptr %7, align 8
  %61 = call i32 @pg_cryptohash_update(ptr noundef %58, ptr noundef %59, i64 noundef %60)
  %62 = icmp slt i32 %61, 0
  br i1 %62, label %63, label %68

63:                                               ; preds = %55
  %64 = load ptr, ptr %12, align 8
  %65 = getelementptr inbounds nuw %struct.JsonManifestParseContext, ptr %64, i32 0, i32 5
  %66 = load ptr, ptr %65, align 8
  %67 = load ptr, ptr %12, align 8
  call void (ptr, ptr, ...) %66(ptr noundef %67, ptr noundef @.str.3) #6
  unreachable

68:                                               ; preds = %55
  br label %76

69:                                               ; preds = %52
  %70 = load ptr, ptr %11, align 8
  %71 = load ptr, ptr %6, align 8
  %72 = load i64, ptr %7, align 8
  %73 = load ptr, ptr %5, align 8
  %74 = getelementptr inbounds nuw %struct.JsonManifestParseIncrementalState, ptr %73, i32 0, i32 2
  %75 = load ptr, ptr %74, align 8
  call void @verify_manifest_checksum(ptr noundef %70, ptr noundef %71, i64 noundef %72, ptr noundef %75)
  br label %76

76:                                               ; preds = %69, %68
  call void @llvm.lifetime.end.p0(i64 8, ptr %12) #5
  call void @llvm.lifetime.end.p0(i64 8, ptr %11) #5
  call void @llvm.lifetime.end.p0(i64 4, ptr %10) #5
  call void @llvm.lifetime.end.p0(i64 4, ptr %9) #5
  ret void
}