; Function Attrs: nounwind uwtable
define dso_local void @json_parse_manifest_incremental_chunk(ptr noundef %0, ptr noundef %1, i64 noundef %2, i1 noundef zeroext %3) local_unnamed_addr #0 {
  %5 = getelementptr inbounds nuw i8, ptr %0, i64 120
  %6 = load ptr, ptr %5, align 8
  %7 = load ptr, ptr %6, align 8
  %8 = tail call i32 @pg_parse_json_incremental(ptr noundef %0, ptr noundef nonnull %5, ptr noundef %1, i64 noundef %2, i1 noundef zeroext %3) #8
  %not. = xor i1 %3, true
  %9 = zext i1 %not. to i32
  %.not = icmp eq i32 %8, %9
  br i1 %.not, label %14, label %10

10:                                               ; preds = %4
  %11 = tail call ptr @json_errdetail(i32 noundef %8, ptr noundef nonnull %0) #8
  %12 = getelementptr inbounds nuw i8, ptr %7, i64 40
  %13 = load ptr, ptr %12, align 8
  tail call void (ptr, ptr, ...) %13(ptr noundef %7, ptr noundef nonnull @.str.52, ptr noundef %11) #9
  unreachable

14:                                               ; preds = %4
  br i1 %3, label %15, label %.critedge

15:                                               ; preds = %14
  %16 = getelementptr inbounds nuw i8, ptr %6, i64 8
  %17 = load i32, ptr %16, align 8
  %.not25 = icmp eq i32 %17, 14
  br i1 %.not25, label %28, label %18

18:                                               ; preds = %15
  %19 = getelementptr inbounds nuw i8, ptr %7, i64 40
  %20 = load ptr, ptr %19, align 8
  tail call void (ptr, ptr, ...) %20(ptr noundef %7, ptr noundef nonnull @.str.52, ptr noundef nonnull @.str.2) #9
  unreachable

.critedge:                                        ; preds = %14
  %21 = getelementptr inbounds nuw i8, ptr %0, i64 200
  %22 = load ptr, ptr %21, align 8
  %23 = tail call i32 @pg_cryptohash_update(ptr noundef %22, ptr noundef %1, i64 noundef %2) #8
  %24 = icmp slt i32 %23, 0
  br i1 %24, label %25, label %31

25:                                               ; preds = %.critedge
  %26 = getelementptr inbounds nuw i8, ptr %7, i64 40
  %27 = load ptr, ptr %26, align 8
  tail call void (ptr, ptr, ...) %27(ptr noundef %7, ptr noundef nonnull @.str.3) #9
  unreachable

28:                                               ; preds = %15
  %29 = getelementptr inbounds nuw i8, ptr %0, i64 200
  %30 = load ptr, ptr %29, align 8
  tail call fastcc void @verify_manifest_checksum(ptr noundef nonnull %6, ptr noundef %1, i64 noundef %2, ptr noundef %30)
  br label %31

31:                                               ; preds = %.critedge, %28
  ret void
}